; ModuleID = 'source-C-CXX/53/1824.c'
source_filename = "source-C-CXX/53/1824.c"
target datalayout = "e-m:e-p270:32:32-p271:32:32-p272:64:64-i64:64-f80:128-n8:16:32:64-S128"
target triple = "x86_64-pc-linux-gnu"

@.str = private unnamed_addr constant [3 x i8] c"%d\00", align 1

; Function Attrs: nofree nounwind sspstrong uwtable
define dso_local i32 @main() local_unnamed_addr #0 {
  %1 = alloca i32, align 4
  %2 = alloca i32, align 4
  %3 = bitcast i32* %1 to i8*
  call void @llvm.lifetime.start.p0i8(i64 4, i8* nonnull %3) #3
  %4 = bitcast i32* %2 to i8*
  call void @llvm.lifetime.start.p0i8(i64 4, i8* nonnull %4) #3
  %5 = call i32 (i8*, ...) @__isoc99_scanf(i8* getelementptr inbounds ([3 x i8], [3 x i8]* @.str, i64 0, i64 0), i32* nonnull %1)
  %6 = call i32 (i8*, ...) @__isoc99_scanf(i8* getelementptr inbounds ([3 x i8], [3 x i8]* @.str, i64 0, i64 0), i32* nonnull %2)
  %7 = load i32, i32* %1, align 4, !tbaa !5
  %8 = load i32, i32* %2, align 4
  %9 = add nsw i32 %7, -1
  %10 = icmp slt i32 %7, 1
  %11 = add i32 %7, 1
  br i1 %10, label %12, label %15

12:                                               ; preds = %0
  %13 = icmp eq i32 %7, 0
  br i1 %13, label %33, label %14

14:                                               ; preds = %12, %14
  br label %14

15:                                               ; preds = %0, %28
  %16 = phi i32 [ %32, %28 ], [ 1, %0 ]
  br label %17

17:                                               ; preds = %15, %25
  %18 = phi i32 [ %16, %15 ], [ %23, %25 ]
  %19 = phi i32 [ 1, %15 ], [ %26, %25 ]
  %20 = mul nsw i32 %7, %18
  %21 = add nsw i32 %8, %20
  %22 = srem i32 %21, %9
  %23 = sdiv i32 %21, %9
  %24 = icmp eq i32 %22, 0
  br i1 %24, label %25, label %28

25:                                               ; preds = %17
  %26 = add nuw i32 %19, 1
  %27 = icmp eq i32 %19, %7
  br i1 %27, label %33, label %17, !llvm.loop !9

28:                                               ; preds = %17
  %29 = icmp eq i32 %19, %11
  %30 = icmp eq i32 %19, %7
  %31 = or i1 %30, %29
  %32 = add nuw nsw i32 %16, 1
  br i1 %31, label %33, label %15

33:                                               ; preds = %28, %25, %12
  %34 = phi i32 [ undef, %12 ], [ %21, %25 ], [ %21, %28 ]
  %35 = call i32 (i8*, ...) @printf(i8* nonnull dereferenceable(1) getelementptr inbounds ([3 x i8], [3 x i8]* @.str, i64 0, i64 0), i32 %34)
  call void @llvm.lifetime.end.p0i8(i64 4, i8* nonnull %4) #3
  call void @llvm.lifetime.end.p0i8(i64 4, i8* nonnull %3) #3
  ret i32 0
}

; Function Attrs: argmemonly mustprogress nofree nosync nounwind willreturn
declare void @llvm.lifetime.start.p0i8(i64 immarg, i8* nocapture) #1

; Function Attrs: nofree nounwind
declare noundef i32 @__isoc99_scanf(i8* nocapture noundef readonly, ...) local_unnamed_addr #2

; Function Attrs: nofree nounwind
declare noundef i32 @printf(i8* nocapture noundef readonly, ...) local_unnamed_addr #2

; Function Attrs: argmemonly mustprogress nofree nosync nounwind willreturn
declare void @llvm.lifetime.end.p0i8(i64 immarg, i8* nocapture) #1


!llvm.module.flags = !{!0, !1, !2, !3}
!llvm.ident = !{!4}

!0 = !{i32 1, !"wchar_size", i32 4}
!1 = !{i32 7, !"PIC Level", i32 2}
!2 = !{i32 7, !"PIE Level", i32 2}
!3 = !{i32 7, !"uwtable", i32 1}
!4 = !{!"clang version 13.0.0"}
!5 = !{!6, !6, i64 0}
!6 = !{!"int", !7, i64 0}
!7 = !{!"omnipotent char", !8, i64 0}
!8 = !{!"Simple C/C++ TBAA"}
!9 = distinct !{!9, !10}
!10 = !{!"llvm.loop.mustprogress"}
